ARM GAS  /tmp/cc8ElvuZ.s 			page 1


   1              		.cpu cortex-m4
   2              		.eabi_attribute 27, 1
   3              		.eabi_attribute 28, 1
   4              		.eabi_attribute 20, 1
   5              		.eabi_attribute 21, 1
   6              		.eabi_attribute 23, 3
   7              		.eabi_attribute 24, 1
   8              		.eabi_attribute 25, 1
   9              		.eabi_attribute 26, 1
  10              		.eabi_attribute 30, 1
  11              		.eabi_attribute 34, 1
  12              		.eabi_attribute 18, 4
  13              		.file	"gpio.c"
  14              		.text
  15              	.Ltext0:
  16              		.cfi_sections	.debug_frame
  17              		.section	.text.MX_GPIO_Init,"ax",%progbits
  18              		.align	1
  19              		.global	MX_GPIO_Init
  20              		.syntax unified
  21              		.thumb
  22              		.thumb_func
  23              		.fpu fpv4-sp-d16
  25              	MX_GPIO_Init:
  26              	.LFB126:
  27              		.file 1 "Src/gpio.c"
   1:Src/gpio.c    **** /**
   2:Src/gpio.c    ****   ******************************************************************************
   3:Src/gpio.c    ****   * File Name          : gpio.c
   4:Src/gpio.c    ****   * Description        : This file provides code for the configuration
   5:Src/gpio.c    ****   *                      of all used GPIO pins.
   6:Src/gpio.c    ****   ******************************************************************************
   7:Src/gpio.c    ****   ** This notice applies to any and all portions of this file
   8:Src/gpio.c    ****   * that are not between comment pairs USER CODE BEGIN and
   9:Src/gpio.c    ****   * USER CODE END. Other portions of this file, whether 
  10:Src/gpio.c    ****   * inserted by the user or by software development tools
  11:Src/gpio.c    ****   * are owned by their respective copyright owners.
  12:Src/gpio.c    ****   *
  13:Src/gpio.c    ****   * COPYRIGHT(c) 2019 STMicroelectronics
  14:Src/gpio.c    ****   *
  15:Src/gpio.c    ****   * Redistribution and use in source and binary forms, with or without modification,
  16:Src/gpio.c    ****   * are permitted provided that the following conditions are met:
  17:Src/gpio.c    ****   *   1. Redistributions of source code must retain the above copyright notice,
  18:Src/gpio.c    ****   *      this list of conditions and the following disclaimer.
  19:Src/gpio.c    ****   *   2. Redistributions in binary form must reproduce the above copyright notice,
  20:Src/gpio.c    ****   *      this list of conditions and the following disclaimer in the documentation
  21:Src/gpio.c    ****   *      and/or other materials provided with the distribution.
  22:Src/gpio.c    ****   *   3. Neither the name of STMicroelectronics nor the names of its contributors
  23:Src/gpio.c    ****   *      may be used to endorse or promote products derived from this software
  24:Src/gpio.c    ****   *      without specific prior written permission.
  25:Src/gpio.c    ****   *
  26:Src/gpio.c    ****   * THIS SOFTWARE IS PROVIDED BY THE COPYRIGHT HOLDERS AND CONTRIBUTORS "AS IS"
  27:Src/gpio.c    ****   * AND ANY EXPRESS OR IMPLIED WARRANTIES, INCLUDING, BUT NOT LIMITED TO, THE
  28:Src/gpio.c    ****   * IMPLIED WARRANTIES OF MERCHANTABILITY AND FITNESS FOR A PARTICULAR PURPOSE ARE
  29:Src/gpio.c    ****   * DISCLAIMED. IN NO EVENT SHALL THE COPYRIGHT HOLDER OR CONTRIBUTORS BE LIABLE
  30:Src/gpio.c    ****   * FOR ANY DIRECT, INDIRECT, INCIDENTAL, SPECIAL, EXEMPLARY, OR CONSEQUENTIAL
  31:Src/gpio.c    ****   * DAMAGES (INCLUDING, BUT NOT LIMITED TO, PROCUREMENT OF SUBSTITUTE GOODS OR
ARM GAS  /tmp/cc8ElvuZ.s 			page 2


  32:Src/gpio.c    ****   * SERVICES; LOSS OF USE, DATA, OR PROFITS; OR BUSINESS INTERRUPTION) HOWEVER
  33:Src/gpio.c    ****   * CAUSED AND ON ANY THEORY OF LIABILITY, WHETHER IN CONTRACT, STRICT LIABILITY,
  34:Src/gpio.c    ****   * OR TORT (INCLUDING NEGLIGENCE OR OTHERWISE) ARISING IN ANY WAY OUT OF THE USE
  35:Src/gpio.c    ****   * OF THIS SOFTWARE, EVEN IF ADVISED OF THE POSSIBILITY OF SUCH DAMAGE.
  36:Src/gpio.c    ****   *
  37:Src/gpio.c    ****   ******************************************************************************
  38:Src/gpio.c    ****   */
  39:Src/gpio.c    **** 
  40:Src/gpio.c    **** /* Includes ------------------------------------------------------------------*/
  41:Src/gpio.c    **** #include "gpio.h"
  42:Src/gpio.c    **** /* USER CODE BEGIN 0 */
  43:Src/gpio.c    **** 
  44:Src/gpio.c    **** /* USER CODE END 0 */
  45:Src/gpio.c    **** 
  46:Src/gpio.c    **** /*----------------------------------------------------------------------------*/
  47:Src/gpio.c    **** /* Configure GPIO                                                             */
  48:Src/gpio.c    **** /*----------------------------------------------------------------------------*/
  49:Src/gpio.c    **** /* USER CODE BEGIN 1 */
  50:Src/gpio.c    **** 
  51:Src/gpio.c    **** /* USER CODE END 1 */
  52:Src/gpio.c    **** 
  53:Src/gpio.c    **** /** Configure pins as 
  54:Src/gpio.c    ****         * Analog 
  55:Src/gpio.c    ****         * Input 
  56:Src/gpio.c    ****         * Output
  57:Src/gpio.c    ****         * EVENT_OUT
  58:Src/gpio.c    ****         * EXTI
  59:Src/gpio.c    **** */
  60:Src/gpio.c    **** void MX_GPIO_Init(void)
  61:Src/gpio.c    **** {
  28              		.loc 1 61 0
  29              		.cfi_startproc
  30              		@ args = 0, pretend = 0, frame = 32
  31              		@ frame_needed = 0, uses_anonymous_args = 0
  32 0000 30B5     		push	{r4, r5, lr}
  33              	.LCFI0:
  34              		.cfi_def_cfa_offset 12
  35              		.cfi_offset 4, -12
  36              		.cfi_offset 5, -8
  37              		.cfi_offset 14, -4
  38 0002 89B0     		sub	sp, sp, #36
  39              	.LCFI1:
  40              		.cfi_def_cfa_offset 48
  41              	.LBB2:
  62:Src/gpio.c    **** 
  63:Src/gpio.c    ****   GPIO_InitTypeDef GPIO_InitStruct;
  64:Src/gpio.c    **** 
  65:Src/gpio.c    ****   /* GPIO Ports Clock Enable */
  66:Src/gpio.c    ****   __HAL_RCC_GPIOH_CLK_ENABLE();
  42              		.loc 1 66 0
  43 0004 0024     		movs	r4, #0
  44 0006 0194     		str	r4, [sp, #4]
  45 0008 134B     		ldr	r3, .L3
  46 000a 1A6B     		ldr	r2, [r3, #48]
  47 000c 42F08002 		orr	r2, r2, #128
  48 0010 1A63     		str	r2, [r3, #48]
  49 0012 1A6B     		ldr	r2, [r3, #48]
ARM GAS  /tmp/cc8ElvuZ.s 			page 3


  50 0014 02F08002 		and	r2, r2, #128
  51 0018 0192     		str	r2, [sp, #4]
  52 001a 019A     		ldr	r2, [sp, #4]
  53              	.LBE2:
  54              	.LBB3:
  67:Src/gpio.c    ****   __HAL_RCC_GPIOD_CLK_ENABLE();
  55              		.loc 1 67 0
  56 001c 0294     		str	r4, [sp, #8]
  57 001e 1A6B     		ldr	r2, [r3, #48]
  58 0020 42F00802 		orr	r2, r2, #8
  59 0024 1A63     		str	r2, [r3, #48]
  60 0026 1B6B     		ldr	r3, [r3, #48]
  61 0028 03F00803 		and	r3, r3, #8
  62 002c 0293     		str	r3, [sp, #8]
  63 002e 029B     		ldr	r3, [sp, #8]
  64              	.LBE3:
  68:Src/gpio.c    **** 
  69:Src/gpio.c    ****   /*Configure GPIO pin Output Level */
  70:Src/gpio.c    ****   HAL_GPIO_WritePin(GPIOD, GPIO_PIN_14, GPIO_PIN_RESET);
  65              		.loc 1 70 0
  66 0030 0A4D     		ldr	r5, .L3+4
  67 0032 2246     		mov	r2, r4
  68 0034 4FF48041 		mov	r1, #16384
  69 0038 2846     		mov	r0, r5
  70 003a FFF7FEFF 		bl	HAL_GPIO_WritePin
  71              	.LVL0:
  71:Src/gpio.c    **** 
  72:Src/gpio.c    ****   /*Configure GPIO pin : PD14 */
  73:Src/gpio.c    ****   GPIO_InitStruct.Pin = GPIO_PIN_14;
  72              		.loc 1 73 0
  73 003e 4FF48043 		mov	r3, #16384
  74 0042 0393     		str	r3, [sp, #12]
  74:Src/gpio.c    ****   GPIO_InitStruct.Mode = GPIO_MODE_OUTPUT_PP;
  75              		.loc 1 74 0
  76 0044 0123     		movs	r3, #1
  77 0046 0493     		str	r3, [sp, #16]
  75:Src/gpio.c    ****   GPIO_InitStruct.Pull = GPIO_NOPULL;
  78              		.loc 1 75 0
  79 0048 0594     		str	r4, [sp, #20]
  76:Src/gpio.c    ****   GPIO_InitStruct.Speed = GPIO_SPEED_FREQ_LOW;
  80              		.loc 1 76 0
  81 004a 0694     		str	r4, [sp, #24]
  77:Src/gpio.c    ****   HAL_GPIO_Init(GPIOD, &GPIO_InitStruct);
  82              		.loc 1 77 0
  83 004c 03A9     		add	r1, sp, #12
  84 004e 2846     		mov	r0, r5
  85 0050 FFF7FEFF 		bl	HAL_GPIO_Init
  86              	.LVL1:
  78:Src/gpio.c    **** 
  79:Src/gpio.c    **** }
  87              		.loc 1 79 0
  88 0054 09B0     		add	sp, sp, #36
  89              	.LCFI2:
  90              		.cfi_def_cfa_offset 12
  91              		@ sp needed
  92 0056 30BD     		pop	{r4, r5, pc}
  93              	.L4:
ARM GAS  /tmp/cc8ElvuZ.s 			page 4


  94              		.align	2
  95              	.L3:
  96 0058 00380240 		.word	1073887232
  97 005c 000C0240 		.word	1073875968
  98              		.cfi_endproc
  99              	.LFE126:
 101              		.text
 102              	.Letext0:
 103              		.file 2 "/usr/arm-none-eabi/include/machine/_default_types.h"
 104              		.file 3 "/usr/arm-none-eabi/include/sys/_stdint.h"
 105              		.file 4 "Drivers/CMSIS/Include/core_cm4.h"
 106              		.file 5 "Drivers/CMSIS/Device/ST/STM32F4xx/Include/system_stm32f4xx.h"
 107              		.file 6 "Drivers/CMSIS/Device/ST/STM32F4xx/Include/stm32f407xx.h"
 108              		.file 7 "/usr/arm-none-eabi/include/sys/lock.h"
 109              		.file 8 "/usr/arm-none-eabi/include/sys/_types.h"
 110              		.file 9 "/usr/lib/gcc/arm-none-eabi/7.3.1/include/stddef.h"
 111              		.file 10 "/usr/arm-none-eabi/include/sys/reent.h"
 112              		.file 11 "Drivers/STM32F4xx_HAL_Driver/Inc/stm32f4xx_hal_gpio.h"
ARM GAS  /tmp/cc8ElvuZ.s 			page 5

